; Function Attrs: mustprogress uwtable
define void @_ZN16FunnelTextDialog11prependTextE7QString(ptr nocapture noundef nonnull readonly align 8 dereferenceable(96) %0, ptr noundef %1) local_unnamed_addr #2 align 2 {
  %3 = getelementptr inbounds i8, ptr %0, i64 64
  %4 = load ptr, ptr %3, align 8
  %5 = getelementptr inbounds i8, ptr %4, i64 8
  %6 = load ptr, ptr %5, align 8
  tail call void @_ZN9QTextEdit10moveCursorEN11QTextCursor13MoveOperationENS0_8MoveModeE(ptr noundef nonnull align 8 dereferenceable(40) %6, i32 noundef 1, i32 noundef 0)
  %7 = load ptr, ptr %3, align 8
  %8 = getelementptr inbounds i8, ptr %7, i64 8
  %9 = load ptr, ptr %8, align 8
  tail call void @_ZN9QTextEdit15insertPlainTextERK7QString(ptr noundef nonnull align 8 dereferenceable(40) %9, ptr noundef nonnull align 8 dereferenceable(24) %1)
  ret void
}